target datalayout = "e-m:e-p270:32:32-p271:32:32-p272:64:64-i64:64-i128:128-f80:128-n8:16:32:64-S128"
target triple = "x86_64-pc-linux-gnu"

%struct.xlist = type { i32, i32, ptr, ptr, ptr, ptr, %union.pthread_rwlock_t, ptr, ptr, [0 x %struct.listNode] }
%union.pthread_rwlock_t = type { %struct.__pthread_rwlock_arch_t }
%struct.__pthread_rwlock_arch_t = type { i32, i32, i32, i32, i32, i32, i32, i32, i8, [7 x i8], i64, i32 }
%struct.listNode = type { ptr, ptr }
%struct.listIterator = type { i32, ptr, ptr, ptr, ptr }

@.str.2 = private unnamed_addr constant [32 x i8] c"%s: pthread_rwlock_wrlock(): %m\00", align 1
@.str.3 = private unnamed_addr constant [32 x i8] c"%s: pthread_rwlock_unlock(): %m\00", align 1
@__func__.list_delete_ptr = private unnamed_addr constant [16 x i8] c"list_delete_ptr\00", align 1

; Function Attrs: nounwind uwtable
define internal ptr @_list_node_destroy(ptr noundef %0, ptr noundef %1) #0 {
  %3 = alloca ptr, align 8
  %4 = alloca ptr, align 8
  %5 = alloca ptr, align 8
  %6 = alloca ptr, align 8
  %7 = alloca ptr, align 8
  %8 = alloca ptr, align 8
  %9 = alloca i32, align 4
  store ptr %0, ptr %4, align 8
  store ptr %1, ptr %5, align 8
  call void @llvm.lifetime.start.p0(i64 8, ptr %6) #6
  call void @llvm.lifetime.start.p0(i64 8, ptr %7) #6
  call void @llvm.lifetime.start.p0(i64 8, ptr %8) #6
  %10 = load ptr, ptr %5, align 8
  %11 = load ptr, ptr %10, align 8
  store ptr %11, ptr %7, align 8
  %12 = icmp ne ptr %11, null
  br i1 %12, label %14, label %13

13:                                               ; preds = %2
  store ptr null, ptr %3, align 8
  store i32 1, ptr %9, align 4
  br label %80

14:                                               ; preds = %2
  %15 = load ptr, ptr %7, align 8
  %16 = getelementptr inbounds nuw %struct.listNode, ptr %15, i32 0, i32 0
  %17 = load ptr, ptr %16, align 8
  store ptr %17, ptr %6, align 8
  %18 = load ptr, ptr %7, align 8
  %19 = getelementptr inbounds nuw %struct.listNode, ptr %18, i32 0, i32 1
  %20 = load ptr, ptr %19, align 8
  %21 = load ptr, ptr %5, align 8
  store ptr %20, ptr %21, align 8
  %22 = icmp ne ptr %20, null
  br i1 %22, label %27, label %23

23:                                               ; preds = %14
  %24 = load ptr, ptr %5, align 8
  %25 = load ptr, ptr %4, align 8
  %26 = getelementptr inbounds nuw %struct.xlist, ptr %25, i32 0, i32 3
  store ptr %24, ptr %26, align 8
  br label %27

27:                                               ; preds = %23, %14
  %28 = load ptr, ptr %4, align 8
  %29 = getelementptr inbounds nuw %struct.xlist, ptr %28, i32 0, i32 1
  %30 = load i32, ptr %29, align 4
  %31 = add nsw i32 %30, -1
  store i32 %31, ptr %29, align 4
  %32 = load ptr, ptr %4, align 8
  %33 = getelementptr inbounds nuw %struct.xlist, ptr %32, i32 0, i32 4
  %34 = load ptr, ptr %33, align 8
  store ptr %34, ptr %8, align 8
  br label %35

35:                                               ; preds = %66, %27
  %36 = load ptr, ptr %8, align 8
  %37 = icmp ne ptr %36, null
  br i1 %37, label %38, label %70

38:                                               ; preds = %35
  %39 = load ptr, ptr %8, align 8
  %40 = getelementptr inbounds nuw %struct.listIterator, ptr %39, i32 0, i32 2
  %41 = load ptr, ptr %40, align 8
  %42 = load ptr, ptr %7, align 8
  %43 = icmp eq ptr %41, %42
  br i1 %43, label %44, label %53

44:                                               ; preds = %38
  %45 = load ptr, ptr %7, align 8
  %46 = getelementptr inbounds nuw %struct.listNode, ptr %45, i32 0, i32 1
  %47 = load ptr, ptr %46, align 8
  %48 = load ptr, ptr %8, align 8
  %49 = getelementptr inbounds nuw %struct.listIterator, ptr %48, i32 0, i32 2
  store ptr %47, ptr %49, align 8
  %50 = load ptr, ptr %5, align 8
  %51 = load ptr, ptr %8, align 8
  %52 = getelementptr inbounds nuw %struct.listIterator, ptr %51, i32 0, i32 3
  store ptr %50, ptr %52, align 8
  br label %65

53:                                               ; preds = %38
  %54 = load ptr, ptr %8, align 8
  %55 = getelementptr inbounds nuw %struct.listIterator, ptr %54, i32 0, i32 3
  %56 = load ptr, ptr %55, align 8
  %57 = load ptr, ptr %7, align 8
  %58 = getelementptr inbounds nuw %struct.listNode, ptr %57, i32 0, i32 1
  %59 = icmp eq ptr %56, %58
  br i1 %59, label %60, label %64

60:                                               ; preds = %53
  %61 = load ptr, ptr %5, align 8
  %62 = load ptr, ptr %8, align 8
  %63 = getelementptr inbounds nuw %struct.listIterator, ptr %62, i32 0, i32 3
  store ptr %61, ptr %63, align 8
  br label %64

64:                                               ; preds = %60, %53
  br label %65

65:                                               ; preds = %64, %44
  br label %66

66:                                               ; preds = %65
  %67 = load ptr, ptr %8, align 8
  %68 = getelementptr inbounds nuw %struct.listIterator, ptr %67, i32 0, i32 4
  %69 = load ptr, ptr %68, align 8
  store ptr %69, ptr %8, align 8
  br label %35, !llvm.loop !34

70:                                               ; preds = %35
  %71 = load ptr, ptr %4, align 8
  %72 = getelementptr inbounds nuw %struct.xlist, ptr %71, i32 0, i32 7
  %73 = load ptr, ptr %72, align 8
  %74 = load ptr, ptr %7, align 8
  %75 = getelementptr inbounds nuw %struct.listNode, ptr %74, i32 0, i32 1
  store ptr %73, ptr %75, align 8
  %76 = load ptr, ptr %7, align 8
  %77 = load ptr, ptr %4, align 8
  %78 = getelementptr inbounds nuw %struct.xlist, ptr %77, i32 0, i32 7
  store ptr %76, ptr %78, align 8
  %79 = load ptr, ptr %6, align 8
  store ptr %79, ptr %3, align 8
  store i32 1, ptr %9, align 4
  br label %80

80:                                               ; preds = %70, %13
  call void @llvm.lifetime.end.p0(i64 8, ptr %8) #6
  call void @llvm.lifetime.end.p0(i64 8, ptr %7) #6
  call void @llvm.lifetime.end.p0(i64 8, ptr %6) #6
  %81 = load ptr, ptr %3, align 8
  ret ptr %81
}

; Function Attrs: nounwind uwtable
define dso_local i32 @list_delete_ptr(ptr noundef %0, ptr noundef %1) #0 {
  %3 = alloca ptr, align 8
  %4 = alloca ptr, align 8
  %5 = alloca ptr, align 8
  %6 = alloca ptr, align 8
  %7 = alloca i32, align 4
  %8 = alloca i32, align 4
  %9 = alloca i32, align 4
  store ptr %0, ptr %3, align 8
  store ptr %1, ptr %4, align 8
  call void @llvm.lifetime.start.p0(i64 8, ptr %5) #6
  call void @llvm.lifetime.start.p0(i64 8, ptr %6) #6
  call void @llvm.lifetime.start.p0(i64 4, ptr %7) #6
  store i32 0, ptr %7, align 4
  br label %10

10:                                               ; preds = %2
  call void @llvm.lifetime.start.p0(i64 4, ptr %8) #6
  %11 = load ptr, ptr %3, align 8
  %12 = getelementptr inbounds nuw %struct.xlist, ptr %11, i32 0, i32 6
  %13 = call i32 @pthread_rwlock_wrlock(ptr noundef %12) #6
  store i32 %13, ptr %8, align 4
  %14 = load i32, ptr %8, align 4
  %15 = icmp ne i32 %14, 0
  br i1 %15, label %16, label %19

16:                                               ; preds = %10
  %17 = load i32, ptr %8, align 4
  %18 = call ptr @__errno_location() #7
  store i32 %17, ptr %18, align 4
  call void (ptr, ...) @fatal_abort(ptr noundef @.str.2, ptr noundef @__func__.list_delete_ptr) #8
  unreachable

19:                                               ; preds = %10
  call void @llvm.lifetime.end.p0(i64 4, ptr %8) #6
  br label %20

20:                                               ; preds = %19
  br label %21

21:                                               ; preds = %20
  %22 = load ptr, ptr %3, align 8
  %23 = getelementptr inbounds nuw %struct.xlist, ptr %22, i32 0, i32 2
  store ptr %23, ptr %5, align 8
  br label %24

24:                                               ; preds = %56, %21
  %25 = load ptr, ptr %5, align 8
  %26 = load ptr, ptr %25, align 8
  %27 = icmp ne ptr %26, null
  br i1 %27, label %28, label %57

28:                                               ; preds = %24
  %29 = load ptr, ptr %5, align 8
  %30 = load ptr, ptr %29, align 8
  %31 = getelementptr inbounds nuw %struct.listNode, ptr %30, i32 0, i32 0
  %32 = load ptr, ptr %31, align 8
  %33 = load ptr, ptr %4, align 8
  %34 = icmp eq ptr %32, %33
  br i1 %34, label %35, label %52

35:                                               ; preds = %28
  %36 = load ptr, ptr %3, align 8
  %37 = load ptr, ptr %5, align 8
  %38 = call ptr @_list_node_destroy(ptr noundef %36, ptr noundef %37)
  store ptr %38, ptr %6, align 8
  %39 = icmp ne ptr %38, null
  br i1 %39, label %40, label %51

40:                                               ; preds = %35
  %41 = load ptr, ptr %3, align 8
  %42 = getelementptr inbounds nuw %struct.xlist, ptr %41, i32 0, i32 5
  %43 = load ptr, ptr %42, align 8
  %44 = icmp ne ptr %43, null
  br i1 %44, label %45, label %50

45:                                               ; preds = %40
  %46 = load ptr, ptr %3, align 8
  %47 = getelementptr inbounds nuw %struct.xlist, ptr %46, i32 0, i32 5
  %48 = load ptr, ptr %47, align 8
  %49 = load ptr, ptr %6, align 8
  call void %48(ptr noundef %49)
  br label %50

50:                                               ; preds = %45, %40
  store i32 1, ptr %7, align 4
  br label %57

51:                                               ; preds = %35
  br label %56

52:                                               ; preds = %28
  %53 = load ptr, ptr %5, align 8
  %54 = load ptr, ptr %53, align 8
  %55 = getelementptr inbounds nuw %struct.listNode, ptr %54, i32 0, i32 1
  store ptr %55, ptr %5, align 8
  br label %56

56:                                               ; preds = %52, %51
  br label %24, !llvm.loop !19

57:                                               ; preds = %50, %24
  br label %58

58:                                               ; preds = %57
  call void @llvm.lifetime.start.p0(i64 4, ptr %9) #6
  %59 = load ptr, ptr %3, align 8
  %60 = getelementptr inbounds nuw %struct.xlist, ptr %59, i32 0, i32 6
  %61 = call i32 @pthread_rwlock_unlock(ptr noundef %60) #6
  store i32 %61, ptr %9, align 4
  %62 = load i32, ptr %9, align 4
  %63 = icmp ne i32 %62, 0
  br i1 %63, label %64, label %67

64:                                               ; preds = %58
  %65 = load i32, ptr %9, align 4
  %66 = call ptr @__errno_location() #7
  store i32 %65, ptr %66, align 4
  call void (ptr, ...) @fatal_abort(ptr noundef @.str.3, ptr noundef @__func__.list_delete_ptr) #8
  unreachable

67:                                               ; preds = %58
  call void @llvm.lifetime.end.p0(i64 4, ptr %9) #6
  br label %68

68:                                               ; preds = %67
  br label %69

69:                                               ; preds = %68
  %70 = load i32, ptr %7, align 4
  call void @llvm.lifetime.end.p0(i64 4, ptr %7) #6
  call void @llvm.lifetime.end.p0(i64 8, ptr %6) #6
  call void @llvm.lifetime.end.p0(i64 8, ptr %5) #6
  ret i32 %70
}