; Function Attrs: nounwind uwtable
define dso_local range(i32 0, 2) i32 @list_delete_ptr(ptr noundef %0, ptr noundef readnone captures(address) %1) #0 {
  %3 = getelementptr inbounds nuw i8, ptr %0, i64 40
  %4 = tail call i32 @pthread_rwlock_wrlock(ptr noundef nonnull %3) #9
  %.not = icmp eq i32 %4, 0
  br i1 %.not, label %7, label %5

5:                                                ; preds = %2
  %6 = tail call ptr @__errno_location() #10
  store i32 %4, ptr %6, align 4
  tail call void (ptr, ...) @fatal_abort(ptr noundef nonnull @.str.2, ptr noundef nonnull @__func__.list_delete_ptr) #11
  unreachable

7:                                                ; preds = %2
  %8 = getelementptr inbounds nuw i8, ptr %0, i64 8
  %9 = load ptr, ptr %8, align 8
  %.not2226 = icmp eq ptr %9, null
  br i1 %.not2226, label %.loopexit, label %.lr.ph

.lr.ph:                                           ; preds = %7
  %10 = getelementptr inbounds nuw i8, ptr %0, i64 16
  %11 = getelementptr inbounds nuw i8, ptr %0, i64 4
  %12 = getelementptr inbounds nuw i8, ptr %0, i64 24
  %13 = getelementptr inbounds nuw i8, ptr %0, i64 96
  %.not23 = icmp eq ptr %1, null
  br label %14

14:                                               ; preds = %.lr.ph, %43
  %15 = phi ptr [ %9, %.lr.ph ], [ %44, %43 ]
  %.027 = phi ptr [ %8, %.lr.ph ], [ %.1, %43 ]
  %16 = load ptr, ptr %15, align 8
  %17 = icmp eq ptr %16, %1
  %18 = getelementptr inbounds nuw i8, ptr %15, i64 8
  br i1 %17, label %19, label %43

19:                                               ; preds = %14
  %20 = load ptr, ptr %18, align 8
  store ptr %20, ptr %.027, align 8
  %.not28.i = icmp eq ptr %20, null
  br i1 %.not28.i, label %21, label %22

21:                                               ; preds = %19
  store ptr %.027, ptr %10, align 8
  br label %22

22:                                               ; preds = %21, %19
  %23 = load i32, ptr %11, align 4
  %24 = add nsw i32 %23, -1
  store i32 %24, ptr %11, align 4
  %.030.i = load ptr, ptr %12, align 8
  %.not2931.i = icmp eq ptr %.030.i, null
  br i1 %.not2931.i, label %_list_node_destroy.exit, label %.lr.ph.i

.lr.ph.i:                                         ; preds = %22, %36
  %.032.i = phi ptr [ %.0.i, %36 ], [ %.030.i, %22 ]
  %25 = getelementptr inbounds nuw i8, ptr %.032.i, i64 16
  %26 = load ptr, ptr %25, align 8
  %27 = icmp eq ptr %26, %15
  br i1 %27, label %28, label %31

28:                                               ; preds = %.lr.ph.i
  %29 = load ptr, ptr %18, align 8
  store ptr %29, ptr %25, align 8
  %30 = getelementptr inbounds nuw i8, ptr %.032.i, i64 24
  store ptr %.027, ptr %30, align 8
  br label %36

31:                                               ; preds = %.lr.ph.i
  %32 = getelementptr inbounds nuw i8, ptr %.032.i, i64 24
  %33 = load ptr, ptr %32, align 8
  %34 = icmp eq ptr %33, %18
  br i1 %34, label %35, label %36

35:                                               ; preds = %31
  store ptr %.027, ptr %32, align 8
  br label %36

36:                                               ; preds = %35, %31, %28
  %37 = getelementptr inbounds nuw i8, ptr %.032.i, i64 32
  %.0.i = load ptr, ptr %37, align 8
  %.not29.i = icmp eq ptr %.0.i, null
  br i1 %.not29.i, label %_list_node_destroy.exit, label %.lr.ph.i, !llvm.loop !17

_list_node_destroy.exit:                          ; preds = %36, %22
  %38 = load ptr, ptr %13, align 8
  store ptr %38, ptr %18, align 8
  store ptr %15, ptr %13, align 8
  br i1 %.not23, label %43, label %39

39:                                               ; preds = %_list_node_destroy.exit
  %40 = getelementptr inbounds nuw i8, ptr %0, i64 32
  %41 = load ptr, ptr %40, align 8
  %.not24 = icmp eq ptr %41, null
  br i1 %.not24, label %.loopexit, label %42

42:                                               ; preds = %39
  tail call void %41(ptr noundef nonnull %16) #9
  br label %.loopexit

43:                                               ; preds = %14, %_list_node_destroy.exit
  %.1 = phi ptr [ %.027, %_list_node_destroy.exit ], [ %18, %14 ]
  %44 = load ptr, ptr %.1, align 8
  %.not22 = icmp eq ptr %44, null
  br i1 %.not22, label %.loopexit, label %14, !llvm.loop !22

.loopexit:                                        ; preds = %43, %7, %39, %42
  %.016 = phi i32 [ 1, %42 ], [ 1, %39 ], [ 0, %7 ], [ 0, %43 ]
  %45 = tail call i32 @pthread_rwlock_unlock(ptr noundef nonnull %3) #9
  %.not25 = icmp eq i32 %45, 0
  br i1 %.not25, label %48, label %46

46:                                               ; preds = %.loopexit
  %47 = tail call ptr @__errno_location() #10
  store i32 %45, ptr %47, align 4
  tail call void (ptr, ...) @fatal_abort(ptr noundef nonnull @.str.3, ptr noundef nonnull @__func__.list_delete_ptr) #11
  unreachable

48:                                               ; preds = %.loopexit
  ret i32 %.016
}